target datalayout = "e-m:e-p270:32:32-p271:32:32-p272:64:64-i64:64-i128:128-f80:128-n8:16:32:64-S128"
target triple = "x86_64-pc-linux-gnu"

%struct.jv = type { i8, i8, i16, i32, %union.anon }
%union.anon = type { ptr }
%struct.jq_state = type { ptr, ptr, ptr, ptr, ptr, %struct.jv, %struct.stack, i32, i32, i32, %struct.jv, %struct.jv, i32, i32, i32, i32, i32, %struct.jv, %struct.jv, %struct.jv, ptr, ptr, ptr, ptr, ptr, ptr }
%struct.stack = type { ptr, i32, i32 }

; Function Attrs: nounwind uwtable
define internal i32 @jv_is_valid(i64 %0, ptr %1) #0 {
  %3 = alloca %struct.jv, align 8
  %4 = getelementptr inbounds nuw { i64, ptr }, ptr %3, i32 0, i32 0
  store i64 %0, ptr %4, align 8
  %5 = getelementptr inbounds nuw { i64, ptr }, ptr %3, i32 0, i32 1
  store ptr %1, ptr %5, align 8
  %6 = getelementptr inbounds nuw { i64, ptr }, ptr %3, i32 0, i32 0
  %7 = load i64, ptr %6, align 8
  %8 = getelementptr inbounds nuw { i64, ptr }, ptr %3, i32 0, i32 1
  %9 = load ptr, ptr %8, align 8
  %10 = call i32 @jv_get_kind(i64 %7, ptr %9)
  %11 = icmp ne i32 %10, 0
  %12 = zext i1 %11 to i32
  ret i32 %12
}

; Function Attrs: nounwind uwtable
define dso_local { i64, ptr } @_jq_path_append(ptr noundef %0, i64 %1, ptr %2, i64 %3, ptr %4, ptr noundef byval(%struct.jv) align 8 %5) #0 {
  %7 = alloca %struct.jv, align 8
  %8 = alloca %struct.jv, align 8
  %9 = alloca %struct.jv, align 8
  %10 = alloca ptr, align 8
  %11 = alloca %struct.jv, align 8
  %12 = alloca %struct.jv, align 8
  %13 = alloca %struct.jv, align 8
  %14 = alloca %struct.jv, align 8
  %15 = getelementptr inbounds nuw { i64, ptr }, ptr %8, i32 0, i32 0
  store i64 %1, ptr %15, align 8
  %16 = getelementptr inbounds nuw { i64, ptr }, ptr %8, i32 0, i32 1
  store ptr %2, ptr %16, align 8
  %17 = getelementptr inbounds nuw { i64, ptr }, ptr %9, i32 0, i32 0
  store i64 %3, ptr %17, align 8
  %18 = getelementptr inbounds nuw { i64, ptr }, ptr %9, i32 0, i32 1
  store ptr %4, ptr %18, align 8
  store ptr %0, ptr %10, align 8, !tbaa !4
  %19 = load ptr, ptr %10, align 8, !tbaa !4
  %20 = getelementptr inbounds nuw %struct.jq_state, ptr %19, i32 0, i32 12
  %21 = load i32, ptr %20, align 8, !tbaa !42
  %22 = icmp ne i32 %21, 0
  br i1 %22, label %39, label %23

23:                                               ; preds = %6
  %24 = load ptr, ptr %10, align 8, !tbaa !4
  %25 = getelementptr inbounds nuw %struct.jq_state, ptr %24, i32 0, i32 10
  %26 = getelementptr inbounds nuw { i64, ptr }, ptr %25, i32 0, i32 0
  %27 = load i64, ptr %26, align 8
  %28 = getelementptr inbounds nuw { i64, ptr }, ptr %25, i32 0, i32 1
  %29 = load ptr, ptr %28, align 8
  %30 = call i32 @jv_get_kind(i64 %27, ptr %29)
  %31 = icmp ne i32 %30, 6
  br i1 %31, label %39, label %32

32:                                               ; preds = %23
  %33 = getelementptr inbounds nuw { i64, ptr }, ptr %5, i32 0, i32 0
  %34 = load i64, ptr %33, align 8
  %35 = getelementptr inbounds nuw { i64, ptr }, ptr %5, i32 0, i32 1
  %36 = load ptr, ptr %35, align 8
  %37 = call i32 @jv_is_valid(i64 %34, ptr %36)
  %38 = icmp ne i32 %37, 0
  br i1 %38, label %48, label %39

39:                                               ; preds = %32, %23, %6
  %40 = getelementptr inbounds nuw { i64, ptr }, ptr %8, i32 0, i32 0
  %41 = load i64, ptr %40, align 8
  %42 = getelementptr inbounds nuw { i64, ptr }, ptr %8, i32 0, i32 1
  %43 = load ptr, ptr %42, align 8
  call void @jv_free(i64 %41, ptr %43)
  %44 = getelementptr inbounds nuw { i64, ptr }, ptr %9, i32 0, i32 0
  %45 = load i64, ptr %44, align 8
  %46 = getelementptr inbounds nuw { i64, ptr }, ptr %9, i32 0, i32 1
  %47 = load ptr, ptr %46, align 8
  call void @jv_free(i64 %45, ptr %47)
  call void @llvm.memcpy.p0.p0.i64(ptr align 8 %7, ptr align 8 %5, i64 16, i1 false), !tbaa.struct !18
  br label %136

48:                                               ; preds = %32
  %49 = load ptr, ptr %10, align 8, !tbaa !4
  %50 = getelementptr inbounds nuw %struct.jq_state, ptr %49, i32 0, i32 11
  %51 = getelementptr inbounds nuw { i64, ptr }, ptr %50, i32 0, i32 0
  %52 = load i64, ptr %51, align 8
  %53 = getelementptr inbounds nuw { i64, ptr }, ptr %50, i32 0, i32 1
  %54 = load ptr, ptr %53, align 8
  %55 = call { i64, ptr } @jv_copy(i64 %52, ptr %54)
  %56 = getelementptr inbounds nuw { i64, ptr }, ptr %11, i32 0, i32 0
  %57 = extractvalue { i64, ptr } %55, 0
  store i64 %57, ptr %56, align 8
  %58 = getelementptr inbounds nuw { i64, ptr }, ptr %11, i32 0, i32 1
  %59 = extractvalue { i64, ptr } %55, 1
  store ptr %59, ptr %58, align 8
  %60 = getelementptr inbounds nuw { i64, ptr }, ptr %8, i32 0, i32 0
  %61 = load i64, ptr %60, align 8
  %62 = getelementptr inbounds nuw { i64, ptr }, ptr %8, i32 0, i32 1
  %63 = load ptr, ptr %62, align 8
  %64 = getelementptr inbounds nuw { i64, ptr }, ptr %11, i32 0, i32 0
  %65 = load i64, ptr %64, align 8
  %66 = getelementptr inbounds nuw { i64, ptr }, ptr %11, i32 0, i32 1
  %67 = load ptr, ptr %66, align 8
  %68 = call i32 @jv_identical(i64 %61, ptr %63, i64 %65, ptr %67)
  %69 = icmp ne i32 %68, 0
  br i1 %69, label %75, label %70

70:                                               ; preds = %48
  %71 = getelementptr inbounds nuw { i64, ptr }, ptr %9, i32 0, i32 0
  %72 = load i64, ptr %71, align 8
  %73 = getelementptr inbounds nuw { i64, ptr }, ptr %9, i32 0, i32 1
  %74 = load ptr, ptr %73, align 8
  call void @jv_free(i64 %72, ptr %74)
  call void @llvm.memcpy.p0.p0.i64(ptr align 8 %7, ptr align 8 %5, i64 16, i1 false), !tbaa.struct !18
  br label %136

75:                                               ; preds = %48
  %76 = getelementptr inbounds nuw { i64, ptr }, ptr %9, i32 0, i32 0
  %77 = load i64, ptr %76, align 8
  %78 = getelementptr inbounds nuw { i64, ptr }, ptr %9, i32 0, i32 1
  %79 = load ptr, ptr %78, align 8
  %80 = call i32 @jv_get_kind(i64 %77, ptr %79)
  %81 = icmp eq i32 %80, 6
  br i1 %81, label %82, label %100

82:                                               ; preds = %75
  %83 = load ptr, ptr %10, align 8, !tbaa !4
  %84 = getelementptr inbounds nuw %struct.jq_state, ptr %83, i32 0, i32 10
  call void @llvm.lifetime.start.p0(i64 16, ptr %12) #7
  %85 = load ptr, ptr %10, align 8, !tbaa !4
  %86 = getelementptr inbounds nuw %struct.jq_state, ptr %85, i32 0, i32 10
  %87 = getelementptr inbounds nuw { i64, ptr }, ptr %86, i32 0, i32 0
  %88 = load i64, ptr %87, align 8
  %89 = getelementptr inbounds nuw { i64, ptr }, ptr %86, i32 0, i32 1
  %90 = load ptr, ptr %89, align 8
  %91 = getelementptr inbounds nuw { i64, ptr }, ptr %9, i32 0, i32 0
  %92 = load i64, ptr %91, align 8
  %93 = getelementptr inbounds nuw { i64, ptr }, ptr %9, i32 0, i32 1
  %94 = load ptr, ptr %93, align 8
  %95 = call { i64, ptr } @jv_array_concat(i64 %88, ptr %90, i64 %92, ptr %94)
  %96 = getelementptr inbounds nuw { i64, ptr }, ptr %12, i32 0, i32 0
  %97 = extractvalue { i64, ptr } %95, 0
  store i64 %97, ptr %96, align 8
  %98 = getelementptr inbounds nuw { i64, ptr }, ptr %12, i32 0, i32 1
  %99 = extractvalue { i64, ptr } %95, 1
  store ptr %99, ptr %98, align 8
  call void @llvm.memcpy.p0.p0.i64(ptr align 8 %84, ptr align 8 %12, i64 16, i1 false), !tbaa.struct !18
  call void @llvm.lifetime.end.p0(i64 16, ptr %12) #7
  br label %118

100:                                              ; preds = %75
  %101 = load ptr, ptr %10, align 8, !tbaa !4
  %102 = getelementptr inbounds nuw %struct.jq_state, ptr %101, i32 0, i32 10
  call void @llvm.lifetime.start.p0(i64 16, ptr %13) #7
  %103 = load ptr, ptr %10, align 8, !tbaa !4
  %104 = getelementptr inbounds nuw %struct.jq_state, ptr %103, i32 0, i32 10
  %105 = getelementptr inbounds nuw { i64, ptr }, ptr %104, i32 0, i32 0
  %106 = load i64, ptr %105, align 8
  %107 = getelementptr inbounds nuw { i64, ptr }, ptr %104, i32 0, i32 1
  %108 = load ptr, ptr %107, align 8
  %109 = getelementptr inbounds nuw { i64, ptr }, ptr %9, i32 0, i32 0
  %110 = load i64, ptr %109, align 8
  %111 = getelementptr inbounds nuw { i64, ptr }, ptr %9, i32 0, i32 1
  %112 = load ptr, ptr %111, align 8
  %113 = call { i64, ptr } @jv_array_append(i64 %106, ptr %108, i64 %110, ptr %112)
  %114 = getelementptr inbounds nuw { i64, ptr }, ptr %13, i32 0, i32 0
  %115 = extractvalue { i64, ptr } %113, 0
  store i64 %115, ptr %114, align 8
  %116 = getelementptr inbounds nuw { i64, ptr }, ptr %13, i32 0, i32 1
  %117 = extractvalue { i64, ptr } %113, 1
  store ptr %117, ptr %116, align 8
  call void @llvm.memcpy.p0.p0.i64(ptr align 8 %102, ptr align 8 %13, i64 16, i1 false), !tbaa.struct !18
  call void @llvm.lifetime.end.p0(i64 16, ptr %13) #7
  br label %118

118:                                              ; preds = %100, %82
  %119 = load ptr, ptr %10, align 8, !tbaa !4
  %120 = getelementptr inbounds nuw %struct.jq_state, ptr %119, i32 0, i32 11
  %121 = getelementptr inbounds nuw { i64, ptr }, ptr %120, i32 0, i32 0
  %122 = load i64, ptr %121, align 8
  %123 = getelementptr inbounds nuw { i64, ptr }, ptr %120, i32 0, i32 1
  %124 = load ptr, ptr %123, align 8
  call void @jv_free(i64 %122, ptr %124)
  %125 = load ptr, ptr %10, align 8, !tbaa !4
  %126 = getelementptr inbounds nuw %struct.jq_state, ptr %125, i32 0, i32 11
  call void @llvm.memcpy.p0.p0.i64(ptr align 8 %126, ptr align 8 %5, i64 16, i1 false), !tbaa.struct !18
  call void @llvm.memcpy.p0.p0.i64(ptr align 8 %14, ptr align 8 %126, i64 16, i1 false), !tbaa.struct !18
  %127 = getelementptr inbounds nuw { i64, ptr }, ptr %14, i32 0, i32 0
  %128 = load i64, ptr %127, align 8
  %129 = getelementptr inbounds nuw { i64, ptr }, ptr %14, i32 0, i32 1
  %130 = load ptr, ptr %129, align 8
  %131 = call { i64, ptr } @jv_copy(i64 %128, ptr %130)
  %132 = getelementptr inbounds nuw { i64, ptr }, ptr %7, i32 0, i32 0
  %133 = extractvalue { i64, ptr } %131, 0
  store i64 %133, ptr %132, align 8
  %134 = getelementptr inbounds nuw { i64, ptr }, ptr %7, i32 0, i32 1
  %135 = extractvalue { i64, ptr } %131, 1
  store ptr %135, ptr %134, align 8
  br label %136

136:                                              ; preds = %118, %70, %39
  %137 = load { i64, ptr }, ptr %7, align 8
  ret { i64, ptr } %137
}