; Function Attrs: nounwind uwtable
define dso_local { i64, ptr } @_jq_path_append(ptr noundef captures(none) %0, i64 %1, ptr %2, i64 %3, ptr %4, ptr noundef readonly byval(%struct.jv) align 8 captures(none) %5) local_unnamed_addr #0 {
  %7 = getelementptr inbounds nuw i8, ptr %0, i64 120
  %8 = load i32, ptr %7, align 8, !tbaa !27
  %.not = icmp eq i32 %8, 0
  br i1 %.not, label %9, label %._crit_edge

._crit_edge:                                      ; preds = %6
  %.sroa.026.0.copyload.pre = load i64, ptr %5, align 8
  br label %19

9:                                                ; preds = %6
  %10 = getelementptr inbounds nuw i8, ptr %0, i64 88
  %11 = load i64, ptr %10, align 8
  %12 = getelementptr inbounds nuw i8, ptr %0, i64 96
  %13 = load ptr, ptr %12, align 8
  %14 = tail call i32 @jv_get_kind(i64 %11, ptr %13) #13
  %.not31 = icmp eq i32 %14, 6
  %.sroa.026.0.copyload.pre37 = load i64, ptr %5, align 8
  br i1 %.not31, label %15, label %19

15:                                               ; preds = %9
  %16 = getelementptr inbounds nuw i8, ptr %5, i64 8
  %17 = load ptr, ptr %16, align 8
  %18 = tail call i32 @jv_get_kind(i64 %.sroa.026.0.copyload.pre37, ptr %17) #13
  %.not36 = icmp eq i32 %18, 0
  br i1 %.not36, label %19, label %22

19:                                               ; preds = %._crit_edge, %15, %9
  %.sroa.026.0.copyload = phi i64 [ %.sroa.026.0.copyload.pre, %._crit_edge ], [ %.sroa.026.0.copyload.pre37, %15 ], [ %.sroa.026.0.copyload.pre37, %9 ]
  tail call void @jv_free(i64 %1, ptr %2) #13
  tail call void @jv_free(i64 %3, ptr %4) #13
  %.sroa.428.0..sroa_idx = getelementptr inbounds nuw i8, ptr %5, i64 8
  %.sroa.428.0.copyload = load ptr, ptr %.sroa.428.0..sroa_idx, align 8, !tbaa !19
  %20 = insertvalue { i64, ptr } poison, i64 %.sroa.026.0.copyload, 0
  %21 = insertvalue { i64, ptr } %20, ptr %.sroa.428.0.copyload, 1
  br label %47

22:                                               ; preds = %15
  %23 = getelementptr inbounds nuw i8, ptr %0, i64 104
  %24 = load i64, ptr %23, align 8
  %25 = getelementptr inbounds nuw i8, ptr %0, i64 112
  %26 = load ptr, ptr %25, align 8
  %27 = tail call { i64, ptr } @jv_copy(i64 %24, ptr %26) #13
  %28 = extractvalue { i64, ptr } %27, 0
  %29 = extractvalue { i64, ptr } %27, 1
  %30 = tail call i32 @jv_identical(i64 %1, ptr %2, i64 %28, ptr %29) #13
  %.not33 = icmp eq i32 %30, 0
  br i1 %.not33, label %31, label %34

31:                                               ; preds = %22
  tail call void @jv_free(i64 %3, ptr %4) #13
  %.sroa.026.0.copyload27 = load i64, ptr %5, align 8
  %.sroa.428.0.copyload30 = load ptr, ptr %16, align 8, !tbaa !19
  %32 = insertvalue { i64, ptr } poison, i64 %.sroa.026.0.copyload27, 0
  %33 = insertvalue { i64, ptr } %32, ptr %.sroa.428.0.copyload30, 1
  br label %47

34:                                               ; preds = %22
  %35 = tail call i32 @jv_get_kind(i64 %3, ptr %4) #13
  %36 = icmp eq i32 %35, 6
  %37 = load i64, ptr %10, align 8
  %38 = load ptr, ptr %12, align 8
  br i1 %36, label %39, label %41

39:                                               ; preds = %34
  %40 = tail call { i64, ptr } @jv_array_concat(i64 %37, ptr %38, i64 %3, ptr %4) #13
  br label %43

41:                                               ; preds = %34
  %42 = tail call { i64, ptr } @jv_array_append(i64 %37, ptr %38, i64 %3, ptr %4) #13
  br label %43

43:                                               ; preds = %41, %39
  %.pn = phi { i64, ptr } [ %42, %41 ], [ %40, %39 ]
  %storemerge34 = extractvalue { i64, ptr } %.pn, 0
  store i64 %storemerge34, ptr %10, align 8
  %storemerge = extractvalue { i64, ptr } %.pn, 1
  store ptr %storemerge, ptr %12, align 8, !tbaa !19
  %44 = load i64, ptr %23, align 8
  %45 = load ptr, ptr %25, align 8
  tail call void @jv_free(i64 %44, ptr %45) #13
  call void @llvm.memcpy.p0.p0.i64(ptr noundef nonnull align 8 dereferenceable(16) %23, ptr noundef nonnull align 8 dereferenceable(16) %5, i64 16, i1 false), !tbaa.struct !30
  %.sroa.0.0.copyload = load i64, ptr %23, align 8
  %.sroa.2.0.copyload = load ptr, ptr %25, align 8, !tbaa !19
  %46 = tail call { i64, ptr } @jv_copy(i64 %.sroa.0.0.copyload, ptr %.sroa.2.0.copyload) #13
  br label %47

47:                                               ; preds = %43, %31, %19
  %.fca.1.insert.merged = phi { i64, ptr } [ %21, %19 ], [ %46, %43 ], [ %33, %31 ]
  ret { i64, ptr } %.fca.1.insert.merged
}